target datalayout = "e-m:e-p270:32:32-p271:32:32-p272:64:64-i64:64-i128:128-f80:128-n8:16:32:64-S128"
target triple = "x86_64-pc-linux-gnu"

%class.btAlignedObjectArray.2 = type <{ [4 x i8], i32, i32, [4 x i8], ptr, i8, [7 x i8] }>
%class.btDeformableBodySolver = type <{ %class.btSoftBodySolver.base, i32, %class.btAlignedObjectArray.2, %class.btAlignedObjectArray.2, %class.btAlignedObjectArray.2, %class.btAlignedObjectArray.2, %class.btAlignedObjectArray.4, %class.btAlignedObjectArray.2, float, [4 x i8], %class.btConjugateGradient, %class.btConjugateResidual, i8, [3 x i8], i32, float, i8, i8, [2 x i8], ptr, i8, [7 x i8] }>
%class.btSoftBodySolver.base = type <{ ptr, i32, i32, float }>
%class.btAlignedObjectArray.4 = type <{ [4 x i8], i32, i32, [4 x i8], ptr, i8, [7 x i8] }>
%class.btConjugateGradient = type { %class.btKrylovSolver, %class.btAlignedObjectArray.2, %class.btAlignedObjectArray.2, %class.btAlignedObjectArray.2, %class.btAlignedObjectArray.2 }
%class.btKrylovSolver = type { ptr, i32, float }
%class.btConjugateResidual = type <{ %class.btKrylovSolver, %class.btAlignedObjectArray.2, %class.btAlignedObjectArray.2, %class.btAlignedObjectArray.2, %class.btAlignedObjectArray.2, %class.btAlignedObjectArray.2, %class.btAlignedObjectArray.2, float, [4 x i8] }>

; Function Attrs: mustprogress uwtable
define dso_local void @_ZN22btDeformableBodySolver11computeStepER20btAlignedObjectArrayI9btVector3ERKS2_(ptr noundef nonnull align 8 dereferenceable(609) %0, ptr noundef nonnull align 8 dereferenceable(25) %1, ptr noundef nonnull align 8 dereferenceable(25) %2) #7 align 2 {
  %4 = alloca ptr, align 8
  %5 = alloca ptr, align 8
  %6 = alloca ptr, align 8
  store ptr %0, ptr %4, align 8, !tbaa !58
  store ptr %1, ptr %5, align 8, !tbaa !81
  store ptr %2, ptr %6, align 8, !tbaa !81
  %7 = load ptr, ptr %4, align 8
  %8 = getelementptr inbounds nuw %class.btDeformableBodySolver, ptr %7, i32 0, i32 20
  %9 = load i8, ptr %8, align 8, !tbaa !73, !range !90, !noundef !91
  %10 = trunc i8 %9 to i1
  br i1 %10, label %11, label %18

11:                                               ; preds = %3
  %12 = getelementptr inbounds nuw %class.btDeformableBodySolver, ptr %7, i32 0, i32 10
  %13 = getelementptr inbounds nuw %class.btDeformableBodySolver, ptr %7, i32 0, i32 19
  %14 = load ptr, ptr %13, align 8, !tbaa !74
  %15 = load ptr, ptr %5, align 8, !tbaa !81
  %16 = load ptr, ptr %6, align 8, !tbaa !81
  %17 = call noundef i32 @_ZN19btConjugateGradientI34btDeformableBackwardEulerObjectiveE5solveERS0_R20btAlignedObjectArrayI9btVector3ERKS5_b(ptr noundef nonnull align 8 dereferenceable(144) %12, ptr noundef nonnull align 8 dereferenceable(504) %14, ptr noundef nonnull align 8 dereferenceable(25) %15, ptr noundef nonnull align 8 dereferenceable(25) %16, i1 noundef zeroext false)
  br label %25

18:                                               ; preds = %3
  %19 = getelementptr inbounds nuw %class.btDeformableBodySolver, ptr %7, i32 0, i32 11
  %20 = getelementptr inbounds nuw %class.btDeformableBodySolver, ptr %7, i32 0, i32 19
  %21 = load ptr, ptr %20, align 8, !tbaa !74
  %22 = load ptr, ptr %5, align 8, !tbaa !81
  %23 = load ptr, ptr %6, align 8, !tbaa !81
  %24 = call noundef i32 @_ZN19btConjugateResidualI34btDeformableBackwardEulerObjectiveE5solveERS0_R20btAlignedObjectArrayI9btVector3ERKS5_b(ptr noundef nonnull align 8 dereferenceable(212) %19, ptr noundef nonnull align 8 dereferenceable(504) %21, ptr noundef nonnull align 8 dereferenceable(25) %22, ptr noundef nonnull align 8 dereferenceable(25) %23, i1 noundef zeroext false)
  br label %25

25:                                               ; preds = %18, %11
  ret void
}