; Function Attrs: mustprogress uwtable
define dso_local void @_ZN22btDeformableBodySolver11computeStepER20btAlignedObjectArrayI9btVector3ERKS2_(ptr noundef nonnull align 8 dereferenceable(609) %0, ptr noundef nonnull align 8 dereferenceable(25) %1, ptr noundef nonnull align 8 dereferenceable(25) %2) local_unnamed_addr #4 align 2 {
  %4 = getelementptr inbounds nuw i8, ptr %0, i64 608
  %5 = load i8, ptr %4, align 8, !tbaa !103, !range !32, !noundef !33
  %6 = trunc nuw i8 %5 to i1
  %7 = getelementptr inbounds nuw i8, ptr %0, i64 600
  %8 = load ptr, ptr %7, align 8, !tbaa !104
  br i1 %6, label %9, label %12

9:                                                ; preds = %3
  %10 = getelementptr inbounds nuw i8, ptr %0, i64 224
  %11 = tail call noundef i32 @_ZN19btConjugateGradientI34btDeformableBackwardEulerObjectiveE5solveERS0_R20btAlignedObjectArrayI9btVector3ERKS5_b(ptr noundef nonnull align 8 dereferenceable(144) %10, ptr noundef nonnull align 8 dereferenceable(504) %8, ptr noundef nonnull align 8 dereferenceable(25) %1, ptr noundef nonnull align 8 dereferenceable(25) %2, i1 noundef zeroext false)
  br label %15

12:                                               ; preds = %3
  %13 = getelementptr inbounds nuw i8, ptr %0, i64 368
  %14 = tail call noundef i32 @_ZN19btConjugateResidualI34btDeformableBackwardEulerObjectiveE5solveERS0_R20btAlignedObjectArrayI9btVector3ERKS5_b(ptr noundef nonnull align 8 dereferenceable(212) %13, ptr noundef nonnull align 8 dereferenceable(504) %8, ptr noundef nonnull align 8 dereferenceable(25) %1, ptr noundef nonnull align 8 dereferenceable(25) %2, i1 noundef zeroext false)
  br label %15

15:                                               ; preds = %12, %9
  ret void
}